target datalayout = "e-m:e-p270:32:32-p271:32:32-p272:64:64-i64:64-i128:128-f80:128-n8:16:32:64-S128"
target triple = "x86_64-pc-linux-gnu"

%struct.alpn_spec = type { [3 x [10 x i8]], i64 }
%struct.alpn_proto_buf = type { [33 x i8], i32 }

; Function Attrs: nounwind uwtable
define dso_local i32 @Curl_alpn_to_proto_str(ptr noundef %0, ptr noundef %1) #0 {
  %3 = alloca i32, align 4
  %4 = alloca ptr, align 8
  %5 = alloca ptr, align 8
  %6 = alloca i64, align 8
  %7 = alloca i64, align 8
  %8 = alloca i64, align 8
  store ptr %0, ptr %4, align 8
  store ptr %1, ptr %5, align 8
  store i64 0, ptr %8, align 8
  %9 = load ptr, ptr %4, align 8
  call void @llvm.memset.p0.i64(ptr align 4 %9, i8 0, i64 40, i1 false)
  store i64 0, ptr %6, align 8
  br label %10

10:                                               ; preds = %62, %2
  %11 = load ptr, ptr %5, align 8
  %12 = icmp ne ptr %11, null
  br i1 %12, label %13, label %19

13:                                               ; preds = %10
  %14 = load i64, ptr %6, align 8
  %15 = load ptr, ptr %5, align 8
  %16 = getelementptr inbounds %struct.alpn_spec, ptr %15, i32 0, i32 1
  %17 = load i64, ptr %16, align 8
  %18 = icmp ult i64 %14, %17
  br label %19

19:                                               ; preds = %13, %10
  %20 = phi i1 [ false, %10 ], [ %18, %13 ]
  br i1 %20, label %21, label %65

21:                                               ; preds = %19
  %22 = load ptr, ptr %5, align 8
  %23 = getelementptr inbounds %struct.alpn_spec, ptr %22, i32 0, i32 0
  %24 = load i64, ptr %6, align 8
  %25 = getelementptr inbounds [3 x [10 x i8]], ptr %23, i64 0, i64 %24
  %26 = getelementptr inbounds [10 x i8], ptr %25, i64 0, i64 0
  %27 = call i64 @strlen(ptr noundef %26) #6
  store i64 %27, ptr %7, align 8
  %28 = load i64, ptr %7, align 8
  %29 = icmp uge i64 %28, 10
  br i1 %29, label %30, label %31

30:                                               ; preds = %21
  store i32 2, ptr %3, align 4
  br label %74

31:                                               ; preds = %21
  %32 = load i64, ptr %8, align 8
  %33 = load i64, ptr %7, align 8
  %34 = add i64 %32, %33
  %35 = add i64 %34, 2
  %36 = icmp uge i64 %35, 33
  br i1 %36, label %37, label %38

37:                                               ; preds = %31
  store i32 2, ptr %3, align 4
  br label %74

38:                                               ; preds = %31
  %39 = load i64, ptr %8, align 8
  %40 = icmp ne i64 %39, 0
  br i1 %40, label %41, label %47

41:                                               ; preds = %38
  %42 = load ptr, ptr %4, align 8
  %43 = getelementptr inbounds %struct.alpn_proto_buf, ptr %42, i32 0, i32 0
  %44 = load i64, ptr %8, align 8
  %45 = add i64 %44, 1
  store i64 %45, ptr %8, align 8
  %46 = getelementptr inbounds [33 x i8], ptr %43, i64 0, i64 %44
  store i8 44, ptr %46, align 1
  br label %47

47:                                               ; preds = %41, %38
  %48 = load ptr, ptr %4, align 8
  %49 = getelementptr inbounds %struct.alpn_proto_buf, ptr %48, i32 0, i32 0
  %50 = getelementptr inbounds [33 x i8], ptr %49, i64 0, i64 0
  %51 = load i64, ptr %8, align 8
  %52 = getelementptr inbounds i8, ptr %50, i64 %51
  %53 = load ptr, ptr %5, align 8
  %54 = getelementptr inbounds %struct.alpn_spec, ptr %53, i32 0, i32 0
  %55 = load i64, ptr %6, align 8
  %56 = getelementptr inbounds [3 x [10 x i8]], ptr %54, i64 0, i64 %55
  %57 = getelementptr inbounds [10 x i8], ptr %56, i64 0, i64 0
  %58 = load i64, ptr %7, align 8
  call void @llvm.memcpy.p0.p0.i64(ptr align 1 %52, ptr align 2 %57, i64 %58, i1 false)
  %59 = load i64, ptr %7, align 8
  %60 = load i64, ptr %8, align 8
  %61 = add i64 %60, %59
  store i64 %61, ptr %8, align 8
  br label %62

62:                                               ; preds = %47
  %63 = load i64, ptr %6, align 8
  %64 = add i64 %63, 1
  store i64 %64, ptr %6, align 8
  br label %10, !llvm.loop !19

65:                                               ; preds = %19
  %66 = load ptr, ptr %4, align 8
  %67 = getelementptr inbounds %struct.alpn_proto_buf, ptr %66, i32 0, i32 0
  %68 = load i64, ptr %8, align 8
  %69 = getelementptr inbounds [33 x i8], ptr %67, i64 0, i64 %68
  store i8 0, ptr %69, align 1
  %70 = load i64, ptr %8, align 8
  %71 = trunc i64 %70 to i32
  %72 = load ptr, ptr %4, align 8
  %73 = getelementptr inbounds %struct.alpn_proto_buf, ptr %72, i32 0, i32 1
  store i32 %71, ptr %73, align 4
  store i32 0, ptr %3, align 4
  br label %74

74:                                               ; preds = %65, %37, %30
  %75 = load i32, ptr %3, align 4
  ret i32 %75
}