; Function Attrs: nofree nounwind memory(argmem: readwrite) uwtable
define dso_local range(i32 0, 3) i32 @Curl_alpn_to_proto_str(ptr noundef writeonly captures(none) initializes((0, 40)) %0, ptr noundef readonly %1) local_unnamed_addr #10 {
  tail call void @llvm.memset.p0.i64(ptr noundef nonnull align 4 dereferenceable(40) %0, i8 0, i64 40, i1 false)
  %.not = icmp eq ptr %1, null
  br i1 %.not, label %.critedge, label %.lr.ph

.lr.ph:                                           ; preds = %2
  %3 = getelementptr inbounds nuw i8, ptr %1, i64 32
  %4 = load i64, ptr %3, align 8
  %.not38 = icmp eq i64 %4, 0
  br i1 %.not38, label %.critedge, label %.lr.ph37

.lr.ph37:                                         ; preds = %.lr.ph, %16
  %.0253036 = phi i64 [ %19, %16 ], [ 0, %.lr.ph ]
  %.03135 = phi i64 [ %18, %16 ], [ 0, %.lr.ph ]
  %5 = getelementptr inbounds [3 x [10 x i8]], ptr %1, i64 0, i64 %.0253036
  %6 = tail call i64 @strlen(ptr noundef nonnull dereferenceable(1) %5) #19
  %7 = icmp ugt i64 %6, 9
  br i1 %7, label %.loopexit, label %8

8:                                                ; preds = %.lr.ph37
  %9 = add i64 %.03135, -31
  %10 = add i64 %9, %6
  %11 = icmp ult i64 %10, -33
  br i1 %11, label %.loopexit, label %12

12:                                               ; preds = %8
  %.not28 = icmp eq i64 %.03135, 0
  br i1 %.not28, label %16, label %13

13:                                               ; preds = %12
  %14 = add i64 %.03135, 1
  %15 = getelementptr inbounds [33 x i8], ptr %0, i64 0, i64 %.03135
  store i8 44, ptr %15, align 1
  br label %16

16:                                               ; preds = %13, %12
  %.1 = phi i64 [ %14, %13 ], [ 0, %12 ]
  %17 = getelementptr inbounds i8, ptr %0, i64 %.1
  tail call void @llvm.memcpy.p0.p0.i64(ptr nonnull align 1 %17, ptr nonnull align 2 %5, i64 %6, i1 false)
  %18 = add i64 %.1, %6
  %19 = add nuw i64 %.0253036, 1
  %20 = load i64, ptr %3, align 8
  %21 = icmp ult i64 %19, %20
  br i1 %21, label %.lr.ph37, label %.critedge

.critedge:                                        ; preds = %16, %.lr.ph, %2
  %.0.lcssa = phi i64 [ 0, %2 ], [ 0, %.lr.ph ], [ %18, %16 ]
  %22 = getelementptr inbounds [33 x i8], ptr %0, i64 0, i64 %.0.lcssa
  store i8 0, ptr %22, align 1
  %23 = trunc i64 %.0.lcssa to i32
  %24 = getelementptr inbounds nuw i8, ptr %0, i64 36
  store i32 %23, ptr %24, align 4
  br label %.loopexit

.loopexit:                                        ; preds = %.lr.ph37, %8, %.critedge
  %.024 = phi i32 [ 0, %.critedge ], [ 2, %8 ], [ 2, %.lr.ph37 ]
  ret i32 %.024
}